; ModuleID = 'source-C-CXX/25/1150.c'
source_filename = "source-C-CXX/25/1150.c"
target datalayout = "e-m:e-p270:32:32-p271:32:32-p272:64:64-i64:64-f80:128-n8:16:32:64-S128"
target triple = "x86_64-pc-linux-gnu"

; Function Attrs: nounwind sspstrong uwtable
define dso_local i32 @main() local_unnamed_addr #0 {
  %1 = alloca [5000 x i8], align 16
  %2 = getelementptr inbounds [5000 x i8], [5000 x i8]* %1, i64 0, i64 0
  call void @llvm.lifetime.start.p0i8(i64 5000, i8* nonnull %2) #5
  %3 = call i32 (i8*, ...) bitcast (i32 (...)* @gets to i32 (i8*, ...)*)(i8* nonnull %2) #5
  %4 = call i64 @strlen(i8* noundef nonnull %2) #6
  %5 = trunc i64 %4 to i32
  %6 = icmp sgt i32 %5, 0
  br i1 %6, label %7, label %34

7:                                                ; preds = %0
  %8 = and i64 %4, 4294967295
  %9 = load i8, i8* %2, align 16, !tbaa !5
  %10 = icmp eq i8 %9, 32
  br i1 %10, label %14, label %11

11:                                               ; preds = %7
  %12 = sext i8 %9 to i32
  %13 = call i32 @putchar(i32 %12)
  br label %14

14:                                               ; preds = %7, %11
  %15 = icmp eq i64 %8, 1
  br i1 %15, label %34, label %16

16:                                               ; preds = %14, %31
  %17 = phi i64 [ %32, %31 ], [ 1, %14 ]
  %18 = getelementptr inbounds [5000 x i8], [5000 x i8]* %1, i64 0, i64 %17
  %19 = load i8, i8* %18, align 1, !tbaa !5
  %20 = icmp eq i8 %19, 32
  br i1 %20, label %21, label %26

21:                                               ; preds = %16
  %22 = add nsw i64 %17, -1
  %23 = getelementptr inbounds [5000 x i8], [5000 x i8]* %1, i64 0, i64 %22
  %24 = load i8, i8* %23, align 1, !tbaa !5
  %25 = icmp eq i8 %24, 32
  br i1 %25, label %31, label %28

26:                                               ; preds = %16
  %27 = sext i8 %19 to i32
  br label %28

28:                                               ; preds = %21, %26
  %29 = phi i32 [ %27, %26 ], [ 32, %21 ]
  %30 = call i32 @putchar(i32 %29)
  br label %31

31:                                               ; preds = %28, %21
  %32 = add nuw nsw i64 %17, 1
  %33 = icmp eq i64 %32, %8
  br i1 %33, label %34, label %16, !llvm.loop !8

34:                                               ; preds = %31, %14, %0
  %35 = call i32 @putchar(i32 10)
  call void @llvm.lifetime.end.p0i8(i64 5000, i8* nonnull %2) #5
  ret i32 0
}

; Function Attrs: argmemonly mustprogress nofree nosync nounwind willreturn
declare void @llvm.lifetime.start.p0i8(i64 immarg, i8* nocapture) #1

declare i32 @gets(...) local_unnamed_addr #2

; Function Attrs: argmemonly mustprogress nofree nounwind readonly willreturn
declare i64 @strlen(i8* nocapture) local_unnamed_addr #3

; Function Attrs: argmemonly mustprogress nofree nosync nounwind willreturn
declare void @llvm.lifetime.end.p0i8(i64 immarg, i8* nocapture) #1

; Function Attrs: nofree nounwind
declare noundef i32 @putchar(i32 noundef) local_unnamed_addr #4


!llvm.module.flags = !{!0, !1, !2, !3}
!llvm.ident = !{!4}

!0 = !{i32 1, !"wchar_size", i32 4}
!1 = !{i32 7, !"PIC Level", i32 2}
!2 = !{i32 7, !"PIE Level", i32 2}
!3 = !{i32 7, !"uwtable", i32 1}
!4 = !{!"clang version 13.0.0"}
!5 = !{!6, !6, i64 0}
!6 = !{!"omnipotent char", !7, i64 0}
!7 = !{!"Simple C/C++ TBAA"}
!8 = distinct !{!8, !9, !10}
!9 = !{!"llvm.loop.mustprogress"}
!10 = !{!"llvm.loop.peeled.count", i32 1}
